; Function Attrs: mustprogress uwtable
define dso_local noundef zeroext i1 @_Z10same_factsRKSt6vectorIPK4FactSaIS2_EES6_(ptr nocapture noundef nonnull readonly align 8 dereferenceable(24) %0, ptr nocapture noundef nonnull readonly align 8 dereferenceable(24) %1) local_unnamed_addr #8 {
  %3 = getelementptr inbounds i8, ptr %0, i64 8
  %4 = load ptr, ptr %3, align 8
  %5 = load ptr, ptr %0, align 8
  %6 = ptrtoint ptr %4 to i64
  %7 = ptrtoint ptr %5 to i64
  %8 = sub i64 %6, %7
  %9 = getelementptr inbounds i8, ptr %1, i64 8
  %10 = load ptr, ptr %9, align 8
  %11 = load ptr, ptr %1, align 8
  %12 = ptrtoint ptr %10 to i64
  %13 = ptrtoint ptr %11 to i64
  %14 = sub i64 %12, %13
  %15 = icmp eq i64 %8, %14
  br i1 %15, label %.preheader, label %_Z9find_factRKSt6vectorIPK4FactSaIS2_EES2_.exit.thread

.preheader:                                       ; preds = %2
  %.not = icmp eq ptr %4, %5
  br i1 %.not, label %_Z9find_factRKSt6vectorIPK4FactSaIS2_EES2_.exit.thread, label %.lr.ph

16:                                               ; preds = %_Z9find_factRKSt6vectorIPK4FactSaIS2_EES2_.exit
  %17 = add nuw i64 %.012, 1
  %18 = load ptr, ptr %3, align 8
  %19 = load ptr, ptr %0, align 8
  %20 = ptrtoint ptr %18 to i64
  %21 = ptrtoint ptr %19 to i64
  %22 = sub i64 %20, %21
  %23 = ashr exact i64 %22, 3
  %24 = icmp ult i64 %17, %23
  br i1 %24, label %.lr.ph, label %_Z9find_factRKSt6vectorIPK4FactSaIS2_EES2_.exit.thread, !llvm.loop !18

.lr.ph:                                           ; preds = %.preheader, %16
  %25 = phi ptr [ %19, %16 ], [ %5, %.preheader ]
  %.012 = phi i64 [ %17, %16 ], [ 0, %.preheader ]
  %26 = getelementptr inbounds ptr, ptr %25, i64 %.012
  %27 = load ptr, ptr %26, align 8
  %28 = load ptr, ptr %9, align 8
  %29 = load ptr, ptr %1, align 8
  %.not.i = icmp eq ptr %28, %29
  br i1 %.not.i, label %_Z9find_factRKSt6vectorIPK4FactSaIS2_EES2_.exit.thread, label %.lr.ph.i

.lr.ph.i:                                         ; preds = %.lr.ph, %37
  %30 = phi ptr [ %40, %37 ], [ %29, %.lr.ph ]
  %.09.i = phi i64 [ %38, %37 ], [ 0, %.lr.ph ]
  %31 = getelementptr inbounds ptr, ptr %30, i64 %.09.i
  %32 = load ptr, ptr %31, align 8
  %33 = load ptr, ptr %27, align 8
  %34 = getelementptr inbounds i8, ptr %33, i64 96
  %35 = load ptr, ptr %34, align 8
  %36 = tail call noundef zeroext i1 %35(ptr noundef nonnull align 8 dereferenceable(12) %27, ptr noundef nonnull align 8 dereferenceable(12) %32)
  br i1 %36, label %_Z9find_factRKSt6vectorIPK4FactSaIS2_EES2_.exit, label %37

37:                                               ; preds = %.lr.ph.i
  %38 = add nuw i64 %.09.i, 1
  %39 = load ptr, ptr %9, align 8
  %40 = load ptr, ptr %1, align 8
  %41 = ptrtoint ptr %39 to i64
  %42 = ptrtoint ptr %40 to i64
  %43 = sub i64 %41, %42
  %44 = ashr exact i64 %43, 3
  %45 = icmp ult i64 %38, %44
  br i1 %45, label %.lr.ph.i, label %_Z9find_factRKSt6vectorIPK4FactSaIS2_EES2_.exit.thread, !llvm.loop !10

_Z9find_factRKSt6vectorIPK4FactSaIS2_EES2_.exit:  ; preds = %.lr.ph.i
  %46 = and i64 %.09.i, 4294967295
  %47 = icmp eq i64 %46, 4294967295
  br i1 %47, label %_Z9find_factRKSt6vectorIPK4FactSaIS2_EES2_.exit.thread, label %16

_Z9find_factRKSt6vectorIPK4FactSaIS2_EES2_.exit.thread: ; preds = %_Z9find_factRKSt6vectorIPK4FactSaIS2_EES2_.exit, %16, %.lr.ph, %37, %.preheader, %2
  %.08 = phi i1 [ false, %2 ], [ true, %.preheader ], [ false, %37 ], [ false, %_Z9find_factRKSt6vectorIPK4FactSaIS2_EES2_.exit ], [ true, %16 ], [ false, %.lr.ph ]
  ret i1 %.08
}